target datalayout = "e-m:e-p270:32:32-p271:32:32-p272:64:64-i64:64-i128:128-f80:128-n8:16:32:64-S128"
target triple = "x86_64-pc-linux-gnu"

%struct.t_inputrec = type { i32, i32, i64, i32, i64, i32, i32, i32, i32, i32, i32, i32, i32, i32, i32, i32, double, double, i8, %"class.std::vector", float, float, float, i32, i32, i32, i32, float, float, i32, float, i32, i32, i8, i8, i32, float, i32, i32, i8, %struct.PressureCouplingOptions, %"class.std::vector.3", %"class.std::vector.3", i32, float, float, float, float, i32, i32, float, float, float, float, i8, i32, i32, float, float, i32, float, float, i32, %"class.std::unique_ptr", i8, %"class.std::unique_ptr.10", i8, %"class.std::unique_ptr.18", i32, float, i32, i8, i32, float, float, float, i32, float, float, i32, float, i32, i32, i32, i32, float, i32, i8, float, i64, i32, i32, float, [2 x i32], [2 x float], float, i8, %"class.std::unique_ptr.26", i8, %"class.std::unique_ptr.34", i8, %"class.std::unique_ptr.42", i32, ptr, i8, ptr, float, [3 x [3 x float]], i32, i32, i32, i32, float, float, float, float, %struct.t_grpopts, i8, i8, i8, i8, ptr, %"class.std::unique_ptr.50" }
%"class.std::vector" = type { %"struct.std::_Vector_base" }
%"struct.std::_Vector_base" = type { %"struct.std::_Vector_base<gmx::MtsLevel, std::allocator<gmx::MtsLevel>>::_Vector_impl" }
%"struct.std::_Vector_base<gmx::MtsLevel, std::allocator<gmx::MtsLevel>>::_Vector_impl" = type { %"struct.std::_Vector_base<gmx::MtsLevel, std::allocator<gmx::MtsLevel>>::_Vector_impl_data" }
%"struct.std::_Vector_base<gmx::MtsLevel, std::allocator<gmx::MtsLevel>>::_Vector_impl_data" = type { ptr, ptr, ptr }
%struct.PressureCouplingOptions = type { i32, i32, i32, float, [3 x [3 x float]], [3 x [3 x float]], i32 }
%"class.std::vector.3" = type { %"struct.std::_Vector_base.4" }
%"struct.std::_Vector_base.4" = type { %"struct.std::_Vector_base<gmx::BasicVector<float>, std::allocator<gmx::BasicVector<float>>>::_Vector_impl" }
%"struct.std::_Vector_base<gmx::BasicVector<float>, std::allocator<gmx::BasicVector<float>>>::_Vector_impl" = type { %"struct.std::_Vector_base<gmx::BasicVector<float>, std::allocator<gmx::BasicVector<float>>>::_Vector_impl_data" }
%"struct.std::_Vector_base<gmx::BasicVector<float>, std::allocator<gmx::BasicVector<float>>>::_Vector_impl_data" = type { ptr, ptr, ptr }
%"class.std::unique_ptr" = type { %"struct.std::__uniq_ptr_data" }
%"struct.std::__uniq_ptr_data" = type { %"class.std::__uniq_ptr_impl" }
%"class.std::__uniq_ptr_impl" = type { %"class.std::tuple" }
%"class.std::tuple" = type { %"struct.std::_Tuple_impl" }
%"struct.std::_Tuple_impl" = type { %"struct.std::_Head_base.9" }
%"struct.std::_Head_base.9" = type { ptr }
%"class.std::unique_ptr.10" = type { %"struct.std::__uniq_ptr_data.11" }
%"struct.std::__uniq_ptr_data.11" = type { %"class.std::__uniq_ptr_impl.12" }
%"class.std::__uniq_ptr_impl.12" = type { %"class.std::tuple.13" }
%"class.std::tuple.13" = type { %"struct.std::_Tuple_impl.14" }
%"struct.std::_Tuple_impl.14" = type { %"struct.std::_Head_base.17" }
%"struct.std::_Head_base.17" = type { ptr }
%"class.std::unique_ptr.18" = type { %"struct.std::__uniq_ptr_data.19" }
%"struct.std::__uniq_ptr_data.19" = type { %"class.std::__uniq_ptr_impl.20" }
%"class.std::__uniq_ptr_impl.20" = type { %"class.std::tuple.21" }
%"class.std::tuple.21" = type { %"struct.std::_Tuple_impl.22" }
%"struct.std::_Tuple_impl.22" = type { %"struct.std::_Head_base.25" }
%"struct.std::_Head_base.25" = type { ptr }
%"class.std::unique_ptr.26" = type { %"struct.std::__uniq_ptr_data.27" }
%"struct.std::__uniq_ptr_data.27" = type { %"class.std::__uniq_ptr_impl.28" }
%"class.std::__uniq_ptr_impl.28" = type { %"class.std::tuple.29" }
%"class.std::tuple.29" = type { %"struct.std::_Tuple_impl.30" }
%"struct.std::_Tuple_impl.30" = type { %"struct.std::_Head_base.33" }
%"struct.std::_Head_base.33" = type { ptr }
%"class.std::unique_ptr.34" = type { %"struct.std::__uniq_ptr_data.35" }
%"struct.std::__uniq_ptr_data.35" = type { %"class.std::__uniq_ptr_impl.36" }
%"class.std::__uniq_ptr_impl.36" = type { %"class.std::tuple.37" }
%"class.std::tuple.37" = type { %"struct.std::_Tuple_impl.38" }
%"struct.std::_Tuple_impl.38" = type { %"struct.std::_Head_base.41" }
%"struct.std::_Head_base.41" = type { ptr }
%"class.std::unique_ptr.42" = type { %"struct.std::__uniq_ptr_data.43" }
%"struct.std::__uniq_ptr_data.43" = type { %"class.std::__uniq_ptr_impl.44" }
%"class.std::__uniq_ptr_impl.44" = type { %"class.std::tuple.45" }
%"class.std::tuple.45" = type { %"struct.std::_Tuple_impl.46" }
%"struct.std::_Tuple_impl.46" = type { %"struct.std::_Head_base.49" }
%"struct.std::_Head_base.49" = type { ptr }
%struct.t_grpopts = type <{ i32, i32, i32, i32, i32, [4 x i8], ptr, ptr, ptr, ptr, ptr, ptr, ptr, ptr, ptr, ptr, i32, [4 x i8] }>
%"class.std::unique_ptr.50" = type { %"struct.std::__uniq_ptr_data.51" }
%"struct.std::__uniq_ptr_data.51" = type { %"class.std::__uniq_ptr_impl.52" }
%"class.std::__uniq_ptr_impl.52" = type { %"class.std::tuple.53" }
%"class.std::tuple.53" = type { %"struct.std::_Tuple_impl.54" }
%"struct.std::_Tuple_impl.54" = type { %"struct.std::_Head_base.57" }
%"struct.std::_Head_base.57" = type { ptr }

; Function Attrs: inlinehint mustprogress nounwind uwtable
define linkonce_odr noundef nonnull align 4 dereferenceable(4) ptr @_ZSt3minIfERKT_S2_S2_(ptr noundef nonnull align 4 dereferenceable(4) %0, ptr noundef nonnull align 4 dereferenceable(4) %1) #4 comdat {
  %3 = alloca ptr, align 8
  %4 = alloca ptr, align 8
  %5 = alloca ptr, align 8
  store ptr %0, ptr %4, align 8, !tbaa !519
  store ptr %1, ptr %5, align 8, !tbaa !519
  %6 = load ptr, ptr %5, align 8, !tbaa !519
  %7 = load float, ptr %6, align 4, !tbaa !213
  %8 = load ptr, ptr %4, align 8, !tbaa !519
  %9 = load float, ptr %8, align 4, !tbaa !213
  %10 = fcmp olt float %7, %9
  br i1 %10, label %11, label %13

11:                                               ; preds = %2
  %12 = load ptr, ptr %5, align 8, !tbaa !519
  store ptr %12, ptr %3, align 8
  br label %15

13:                                               ; preds = %2
  %14 = load ptr, ptr %4, align 8, !tbaa !519
  store ptr %14, ptr %3, align 8
  br label %15

15:                                               ; preds = %13, %11
  %16 = load ptr, ptr %3, align 8
  ret ptr %16
}

; Function Attrs: mustprogress uwtable
define noundef i32 @_Z21ir_optimal_nsttcouplePK10t_inputrec(ptr noundef %0) #3 {
  %2 = alloca ptr, align 8
  %3 = alloca i32, align 4
  %4 = alloca i32, align 4
  %5 = alloca i32, align 4
  %6 = alloca float, align 4
  %7 = alloca i32, align 4
  store ptr %0, ptr %2, align 8, !tbaa !34
  call void @llvm.lifetime.start.p0(i64 4, ptr %3) #5
  call void @llvm.lifetime.start.p0(i64 4, ptr %4) #5
  call void @llvm.lifetime.start.p0(i64 4, ptr %5) #5
  call void @llvm.lifetime.start.p0(i64 4, ptr %6) #5
  call void @llvm.lifetime.start.p0(i64 4, ptr %7) #5
  %8 = load ptr, ptr %2, align 8, !tbaa !34
  %9 = getelementptr inbounds nuw %struct.t_inputrec, ptr %8, i32 0, i32 37
  %10 = load i32, ptr %9, align 8, !tbaa !162
  %11 = call noundef i32 @_Z29tcouple_min_integration_steps19TemperatureCoupling(i32 noundef %10)
  store i32 %11, ptr %3, align 4, !tbaa !212
  store i32 100, ptr %4, align 4, !tbaa !212
  store float 0x4415AF1D80000000, ptr %6, align 4, !tbaa !213
  %12 = load ptr, ptr %2, align 8, !tbaa !34
  %13 = getelementptr inbounds nuw %struct.t_inputrec, ptr %12, i32 0, i32 37
  %14 = load i32, ptr %13, align 8, !tbaa !162
  %15 = icmp ne i32 %14, 0
  br i1 %15, label %16, label %49

16:                                               ; preds = %1
  store i32 0, ptr %7, align 4, !tbaa !212
  br label %17

17:                                               ; preds = %45, %16
  %18 = load i32, ptr %7, align 4, !tbaa !212
  %19 = load ptr, ptr %2, align 8, !tbaa !34
  %20 = getelementptr inbounds nuw %struct.t_inputrec, ptr %19, i32 0, i32 116
  %21 = getelementptr inbounds nuw %struct.t_grpopts, ptr %20, i32 0, i32 0
  %22 = load i32, ptr %21, align 8, !tbaa !527
  %23 = icmp slt i32 %18, %22
  br i1 %23, label %24, label %48

24:                                               ; preds = %17
  %25 = load ptr, ptr %2, align 8, !tbaa !34
  %26 = getelementptr inbounds nuw %struct.t_inputrec, ptr %25, i32 0, i32 116
  %27 = getelementptr inbounds nuw %struct.t_grpopts, ptr %26, i32 0, i32 12
  %28 = load ptr, ptr %27, align 8, !tbaa !534
  %29 = load i32, ptr %7, align 4, !tbaa !212
  %30 = sext i32 %29 to i64
  %31 = getelementptr inbounds float, ptr %28, i64 %30
  %32 = load float, ptr %31, align 4, !tbaa !213
  %33 = fcmp ogt float %32, 0.000000e+00
  br i1 %33, label %34, label %44

34:                                               ; preds = %24
  %35 = load ptr, ptr %2, align 8, !tbaa !34
  %36 = getelementptr inbounds nuw %struct.t_inputrec, ptr %35, i32 0, i32 116
  %37 = getelementptr inbounds nuw %struct.t_grpopts, ptr %36, i32 0, i32 12
  %38 = load ptr, ptr %37, align 8, !tbaa !534
  %39 = load i32, ptr %7, align 4, !tbaa !212
  %40 = sext i32 %39 to i64
  %41 = getelementptr inbounds float, ptr %38, i64 %40
  %42 = call noundef nonnull align 4 dereferenceable(4) ptr @_ZSt3minIfERKT_S2_S2_(ptr noundef nonnull align 4 dereferenceable(4) %6, ptr noundef nonnull align 4 dereferenceable(4) %41)
  %43 = load float, ptr %42, align 4, !tbaa !213
  store float %43, ptr %6, align 4, !tbaa !213
  br label %44

44:                                               ; preds = %34, %24
  br label %45

45:                                               ; preds = %44
  %46 = load i32, ptr %7, align 4, !tbaa !212
  %47 = add nsw i32 %46, 1
  store i32 %47, ptr %7, align 4, !tbaa !212
  br label %17, !llvm.loop !745

48:                                               ; preds = %17
  br label %49

49:                                               ; preds = %48, %1
  %50 = load i32, ptr %3, align 4, !tbaa !212
  %51 = icmp eq i32 %50, 0
  br i1 %51, label %65, label %52

52:                                               ; preds = %49
  %53 = load ptr, ptr %2, align 8, !tbaa !34
  %54 = getelementptr inbounds nuw %struct.t_inputrec, ptr %53, i32 0, i32 17
  %55 = load double, ptr %54, align 8, !tbaa !145
  %56 = load i32, ptr %4, align 4, !tbaa !212
  %57 = sitofp i32 %56 to double
  %58 = fmul double %55, %57
  %59 = load float, ptr %6, align 4, !tbaa !213
  %60 = load i32, ptr %3, align 4, !tbaa !212
  %61 = sitofp i32 %60 to float
  %62 = fdiv float %59, %61
  %63 = fpext float %62 to double
  %64 = fcmp ole double %58, %63
  br i1 %64, label %65, label %67

65:                                               ; preds = %52, %49
  %66 = load i32, ptr %4, align 4, !tbaa !212
  store i32 %66, ptr %5, align 4, !tbaa !212
  br label %92

67:                                               ; preds = %52
  %68 = load float, ptr %6, align 4, !tbaa !213
  %69 = fpext float %68 to double
  %70 = load ptr, ptr %2, align 8, !tbaa !34
  %71 = getelementptr inbounds nuw %struct.t_inputrec, ptr %70, i32 0, i32 17
  %72 = load double, ptr %71, align 8, !tbaa !145
  %73 = load i32, ptr %3, align 4, !tbaa !212
  %74 = sitofp i32 %73 to double
  %75 = fmul double %72, %74
  %76 = fdiv double %69, %75
  %77 = fadd double %76, 1.000000e-03
  %78 = fptosi double %77 to i32
  store i32 %78, ptr %5, align 4, !tbaa !212
  %79 = load i32, ptr %5, align 4, !tbaa !212
  %80 = icmp slt i32 %79, 1
  br i1 %80, label %81, label %82

81:                                               ; preds = %67
  store i32 1, ptr %5, align 4, !tbaa !212
  br label %82

82:                                               ; preds = %81, %67
  br label %83

83:                                               ; preds = %88, %82
  %84 = load i32, ptr %4, align 4, !tbaa !212
  %85 = load i32, ptr %5, align 4, !tbaa !212
  %86 = srem i32 %84, %85
  %87 = icmp ne i32 %86, 0
  br i1 %87, label %88, label %91

88:                                               ; preds = %83
  %89 = load i32, ptr %5, align 4, !tbaa !212
  %90 = add nsw i32 %89, -1
  store i32 %90, ptr %5, align 4, !tbaa !212
  br label %83, !llvm.loop !746

91:                                               ; preds = %83
  br label %92

92:                                               ; preds = %91, %65
  %93 = load i32, ptr %5, align 4, !tbaa !212
  call void @llvm.lifetime.end.p0(i64 4, ptr %7) #5
  call void @llvm.lifetime.end.p0(i64 4, ptr %6) #5
  call void @llvm.lifetime.end.p0(i64 4, ptr %5) #5
  call void @llvm.lifetime.end.p0(i64 4, ptr %4) #5
  call void @llvm.lifetime.end.p0(i64 4, ptr %3) #5
  ret i32 %93
}