; Function Attrs: mustprogress uwtable
define noundef i32 @_Z21ir_optimal_nsttcouplePK10t_inputrec(ptr noundef readonly captures(none) %0) local_unnamed_addr #1 {
  %2 = getelementptr inbounds nuw i8, ptr %0, i64 192
  %3 = load i32, ptr %2, align 8, !tbaa !242
  %4 = tail call noundef i32 @_Z29tcouple_min_integration_steps19TemperatureCoupling(i32 noundef %3)
  %5 = load i32, ptr %2, align 8, !tbaa !242
  %.not = icmp eq i32 %5, 0
  br i1 %.not, label %.loopexit26, label %.preheader

.preheader:                                       ; preds = %1
  %6 = getelementptr inbounds nuw i8, ptr %0, i64 744
  %7 = load i32, ptr %6, align 8, !tbaa !191
  %8 = icmp sgt i32 %7, 0
  br i1 %8, label %.lr.ph, label %.loopexit26

.lr.ph:                                           ; preds = %.preheader
  %9 = getelementptr inbounds nuw i8, ptr %0, i64 816
  %10 = load ptr, ptr %9, align 8, !tbaa !196
  %wide.trip.count = zext nneg i32 %7 to i64
  br label %11

11:                                               ; preds = %.lr.ph, %11
  %indvars.iv = phi i64 [ 0, %.lr.ph ], [ %indvars.iv.next, %11 ]
  %.12527 = phi float [ 0x4415AF1D80000000, %.lr.ph ], [ %.2, %11 ]
  %12 = getelementptr inbounds nuw float, ptr %10, i64 %indvars.iv
  %13 = load float, ptr %12, align 4, !tbaa !243
  %14 = fcmp ogt float %13, 0.000000e+00
  %15 = fcmp olt float %13, %.12527
  %16 = select i1 %14, i1 %15, i1 false
  %.2 = select i1 %16, float %13, float %.12527
  %indvars.iv.next = add nuw nsw i64 %indvars.iv, 1
  %exitcond.not = icmp eq i64 %indvars.iv.next, %wide.trip.count
  br i1 %exitcond.not, label %.loopexit26, label %11, !llvm.loop !244

.loopexit26:                                      ; preds = %11, %.preheader, %1
  %.024 = phi float [ 0x4415AF1D80000000, %1 ], [ 0x4415AF1D80000000, %.preheader ], [ %.2, %11 ]
  %17 = icmp eq i32 %4, 0
  br i1 %17, label %.loopexit, label %18

18:                                               ; preds = %.loopexit26
  %19 = getelementptr inbounds nuw i8, ptr %0, i64 88
  %20 = load double, ptr %19, align 8, !tbaa !245
  %21 = fmul double %20, 1.000000e+02
  %22 = uitofp nneg i32 %4 to float
  %23 = fdiv float %.024, %22
  %24 = fpext float %23 to double
  %25 = fcmp ugt double %21, %24
  br i1 %25, label %26, label %.loopexit

26:                                               ; preds = %18
  %27 = fpext float %.024 to double
  %28 = uitofp nneg i32 %4 to double
  %29 = fmul double %20, %28
  %30 = fdiv double %27, %29
  %31 = fadd double %30, 1.000000e-03
  %32 = fptosi double %31 to i32
  %spec.store.select = tail call i32 @llvm.smax.i32(i32 %32, i32 1)
  br label %33

33:                                               ; preds = %33, %26
  %.1 = phi i32 [ %spec.store.select, %26 ], [ %35, %33 ]
  %34 = srem i32 100, %.1
  %.not22 = icmp eq i32 %34, 0
  %35 = add nsw i32 %.1, -1
  br i1 %.not22, label %.loopexit, label %33, !llvm.loop !246

.loopexit:                                        ; preds = %33, %.loopexit26, %18
  %.020 = phi i32 [ 100, %18 ], [ 100, %.loopexit26 ], [ %.1, %33 ]
  ret i32 %.020
}